(dp0
S'rate_map'
p1
(lp2
(lp3
(lp4
F-0.19999999999999996
aF0.0
aa(lp5
F0.8946307983482901
aF0.2824290310437286
aF0.6122017673045616
aF0.6122017673045616
aF0.2824290310437286
aF2.938735877055719e-26
aaa(lp6
(lp7
F0.40000000000000013
aF0.0
aa(lp8
F0.7356434694906863
aF0.6065519978741141
aF0.12909147161657217
aF0.12909147161657217
aF0.6065519978741141
aF2.938735877055719e-26
aaa(lp9
(lp10
F-0.3999999999999999
aF0.0
aa(lp11
F0.9512837557260935
aF0.1669322505317286
aF0.7843515051943649
aF0.7843515051943649
aF0.1669322505317286
aF2.938735877055719e-26
aaa(lp12
(lp13
F-0.8
aF0.0
aa(lp14
F1.011663143517598
aF0.043838501820620865
aF0.9678246416969771
aF0.9678246416969771
aF0.043838501820620865
aF2.938735877055719e-26
aaa(lp15
(lp16
F0.6000000000000001
aF0.0
aa(lp17
F0.7141736434453941
aF0.6503219137814656
aF0.06385172966392852
aF0.06385172966392852
aF0.6503219137814656
aF2.938735877055719e-26
aaa(lp18
(lp19
F1.0
aF0.0
aa(lp20
F0.679248491869137
aF0.6641983246609344
aF0.015050167208202559
aF0.015050167208202559
aF0.6641983246609344
aF1e-187
aaa(lp21
(lp22
F0.0
aF0.0
aa(lp23
F0.8296809394883633
aF0.41484046974418165
aF0.41484046974418165
aF0.41484046974418165
aF0.41484046974418165
aF2.938735877055719e-26
aaa(lp24
(lp25
F-1.0
aF0.0
aa(lp26
F1.0228964647153624
aF0.020937447880102256
aF1.0019590168352601
aF1.0019590168352601
aF0.020937447880102256
aF2.938735877055719e-26
aaa(lp27
(lp28
F0.8
aF0.0
aa(lp29
F0.7031803409080487
aF0.6727083068969268
aF0.030472034011121817
aF0.030472034011121817
aF0.6727083068969268
aF2.938735877055719e-26
aaa(lp30
(lp31
F-0.6
aF0.0
aa(lp32
F0.9897604202851191
aF0.08849096366699666
aF0.9012694566181225
aF0.9012694566181225
aF0.08849096366699666
aF2.938735877055719e-26
aaa(lp33
(lp34
F0.20000000000000018
aF0.0
aa(lp35
F0.7735234299410984
aF0.5293271947888686
aF0.2441962351522298
aF0.2441962351522298
aF0.5293271947888686
aF2.938735877055719e-26
aaas.