(dp1
S'rate_map'
p2
(lp3
(lp4
(lp5
F-0.19999999999999996
aF0
aa(lp6
ccopy_reg
_reconstructor
p7
(cmpmath.ctx_mp_python
mpf
p8
c__builtin__
object
p9
NtRp10
(I0
S'72834312733c456fcfc33c0763c6fb86f3743619d624a2c759cdebafa5935b64c584aeeb2247526d3df29b1e1ee2c0dc8c9f647d9'
I-419
I419
tbag7
(g8
g9
NtRp11
(I0
S'484d44dbc616a3798950a02445e4f94f0514307286374359d7b7979e99441d32d511d28937fbbdde2de501125c7120cd3c2e94fc1'
I-420
I419
tbag7
(g8
g9
NtRp12
(I0
S'9cb941492061e7661635d7ea81a8fdbee1d43bc126120234dbe43fc0b1e29996b5f78b4d0c92e6fc4e003529e15460ebdd1033ff'
I-416
I416
tbag7
(g8
g9
NtRp13
(I0
S'9cb941492061e7661635d7ea81a8fdbee1d43bc126120234dbe43fc0b1e29996b5f78b4d0c92e6fc4e003529e15460ebdd1033ff'
I-416
I416
tbag7
(g8
g9
NtRp14
(I0
S'12135136f185a8de6254280911793e53c1450c1ca18dd0d675ede5e7a651074cb54474a24dfeef778b794044971c48334f0ba53f'
I-414
I413
tbag7
(g8
g9
NtRp15
(I0
S'48c27394fffffffffffff4df2b7bd346d9f045c00247c15df7a430589f4a7126e9ea156e0512960fc2c4552dfd38eadbecf248551'
I-503
I419
tbaaa(lp16
(lp17
F0.40000000000000013
aF0
aa(lp18
g7
(g8
g9
NtRp19
(I0
S'2f14c858be9f4689c76e9e7e09a9ffb029a879889b4a305de0401c5c7d6cafd93e0a96ef3e5310e8451a4fdae4ca02d9e9a78bd67'
I-418
I418
tbag7
(g8
g9
NtRp20
(I0
S'4da37ef118ad11d57f74b50fadcc311d7242ea64ee339dff33c569af6b1d9a9ba1b370db950bc462650c517795db9f88399f8b081'
I-419
I419
tbag7
(g8
g9
NtRp21
(I0
S'421847019245ecf83da21fb1961f390b843822b121830af232eb3c263eef145b6986f40b9e6975b894a138f8cee198ae66be3293d'
I-421
I419
tbag7
(g8
g9
NtRp22
(I0
S'108611c064917b3e0f6887ec6587ce42e10e08ac4860c2bc8cbacf098fbbc516da61bd02e79a5d6e25284e3e33b8662b99af8ca4f'
I-419
I417
tbag7
(g8
g9
NtRp23
(I0
S'4da37ef118ad11d57f74b50fadcc311d7242ea64ee339dff33c569af6b1d9a9ba1b370db950bc462650c517795db9f88399f8b07f'
I-419
I419
tbag7
(g8
g9
NtRp24
(I0
S'48c27394fffffffffffff4df2b7bd346d9f045c00247c15df7a430589f4a7126e9ea156e0512960fc2c4552dfd38eadbecf248551'
I-503
I419
tbaaa(lp25
(lp26
F-0.39999999999999991
aF0
aa(lp27
g7
(g8
g9
NtRp28
(I0
S'79c3aa8607a1c4249d3fa4735e3518a9e5963753749c59ab9ce2b2905ff03d5329aaf1f3b0cfb4566fdfd4e4659fb28276350aa71'
I-419
I419
tbag7
(g8
g9
NtRp29
(I0
S'aaf049b2b9cecfcf81d50047a4bd60e31f4dff0cba5f96730291d649e549beb6f0986870c82ae2aafaace725b9a24380a99f4ed5'
I-418
I416
tbag7
(g8
g9
NtRp30
(I0
S'3232d0a7d833f5155682823534ceb646c0d63bb8eea8336e9e483be391a382be25cbf272cbe52c0088451bffd735b509308090663'
I-418
I418
tbag7
(g8
g9
NtRp31
(I0
S'6465a14fb067ea2aad05046a699d6c8d81ac7771dd5066dd3c9077c72347057c4b97e4e597ca5801108a37ffae6b6a12610120cc7'
I-419
I419
tbag7
(g8
g9
NtRp32
(I0
S'557824d95ce767e7c0ea8023d25eb0718fa6ff865d2fcb398148eb24f2a4df5b784c3438641571557d567392dcd121c054cfa76a9'
I-421
I419
tbag7
(g8
g9
NtRp33
(I0
S'48c27394fffffffffffff4df2b7bd346d9f045c00247c15df7a430589f4a7126e9ea156e0512960fc2c4552dfd38eadbecf248551'
I-503
I419
tbaaa(lp34
(lp35
F-0.80000000000000004
aF0
aa(lp36
g7
(g8
g9
NtRp37
(I0
S'205f8b627f409e28f3d9c54e284f01592ccbbaa839a71e7f620997ae3f312a94d6c86bc11d9176d64def518f5e46a2373e616ad9f'
I-417
I418
tbag7
(g8
g9
NtRp38
(I0
S'59c8001d006a77bfd30ff017d3ef907dbd2f26d11321c9d52cca471a8ac9372dbcd7f17794b7bdf9c302bb8c3955cec3c19401f55'
I-423
I419
tbag7
(g8
g9
NtRp39
(I0
S'3df0d6c4167de893e91b0b1b91fe862e6badfc19eab52eb01aacdd23aa0c0b703faa17f67e7d2fbccdc68d425ac295f85eb635a43'
I-418
I418
tbag7
(g8
g9
NtRp40
(I0
S'7be1ad882cfbd127d236163723fd0c5cd75bf833d56a5d603559ba47541816e07f542fecfcfa5f799b8d1a84b5852bf0bd6c6b487'
I-419
I419
tbag7
(g8
g9
NtRp41
(I0
S'59c8001d006a77bfd30ff017d3ef907dbd2f26d11321c9d52cca471a8ac9372dbcd7f17794b7bdf9c302bb8c3955cec3c19401f55'
I-423
I419
tbag7
(g8
g9
NtRp42
(I0
S'48c27394fffffffffffff4df2b7bd346d9f045c00247c15df7a430589f4a7126e9ea156e0512960fc2c4552dfd38eadbecf248551'
I-503
I419
tbaaa(lp43
(lp44
F0.60000000000000009
aF0
aa(lp45
g7
(g8
g9
NtRp46
(I0
S'5b6a0abd21ae54e90e367f63806c118457658ca28ad8f790b696ccd10b325224dc36d6c00f0bd4fbd8429b88c88af8e65cd8b0d7b'
I-419
I419
tbag7
(g8
g9
NtRp47
(I0
S'299edfcde410d1e590db24e35cb5c6ce203ebcace00aff3c83aea6fa9e42f57729b7b015ee30772c09e910e479bd1a72f14e6b73f'
I-418
I418
tbag7
(g8
g9
NtRp48
(I0
S'10589642b319623bd9006b398e0107d02dd026919585f22f5e72fdb79d58ce6d118eed286555cd4788e0f37faa218800f477b3df5'
I-420
I417
tbag7
(g8
g9
NtRp49
(I0
S'4162590acc6588ef6401ace638041f40b7409a465617c8bd79cbf6de756339b4463bb4a19557351e2383cdfea8862003d1decf7d3'
I-422
I419
tbag7
(g8
g9
NtRp50
(I0
S'a67b7f3790434796436c938d72d71b3880faf2b3802bfcf20eba9bea790bd5dca6dec057b8c1dcb027a44391e6f469cbc539add'
I-412
I412
tbag7
(g8
g9
NtRp51
(I0
S'48c27394fffffffffffff4df2b7bd346d9f045c00247c15df7a430589f4a7126e9ea156e0512960fc2c4552dfd38eadbecf248551'
I-503
I419
tbaaa(lp52
(lp53
F1
aF0
aa(lp54
g7
(g8
g9
NtRp55
(I0
S'56f19d5537b6c6e7740e5f73c5cbfbccf81cf5da0f1de1d8ca7c33f565cb06e8476b361576df465229fc7c234a2f4cc746d0b29df'
I-419
I419
tbag7
(g8
g9
NtRp56
(I0
S'15411cd84f412853120cf4cd90b97ed0fca0cfa7d5fddee25d9c2f6ae0cefba0eba491385b4b88a3b7694162123a23bf865d6329'
I-413
I413
tbag7
(g8
g9
NtRp57
(I0
S'7b4a7cfeac8966caf6a30f60b9802241666dceadc99993d502dd9278a3c61926363c4d026c48f0d316c50de7e371a6b1b1274b2b5'
I-425
I419
tbag7
(g8
g9
NtRp58
(I0
S'3da53e7f5644b3657b5187b05cc01120b336e756e4ccc9ea816ec93c51e30c931b1e2681362478698b6286f3f1b8d358d893a595b'
I-424
I418
tbag7
(g8
g9
NtRp59
(I0
S'15411cd84f412853120cf4cd90b97ed0fca0cfa7d5fddee25d9c2f6ae0cefba0eba491385b4b88a3b7694162123a23bf865d6329'
I-413
I413
tbag7
(g8
g9
NtRp60
(I0
S'dec681f9f4c321b33cb1eeed4172949d'
I-749
I128
tbaaa(lp61
(lp62
F0
aF0
aa(lp63
g7
(g8
g9
NtRp64
(I0
S'd465f85537923e726e4a461319516aa2f51059a174916d23429d8a6930be2e50b2e8c0998dbf56f784853bd7173204eff8e70545'
I-416
I416
tbag7
(g8
g9
NtRp65
(I0
S'1a8cbf0aa6f247ce4dc948c2632a2d545ea20b342e922da46853b14d2617c5ca165d181331b7eadef090a77ae2e6409dff1ce0a89'
I-418
I417
tbag7
(g8
g9
NtRp66
(I0
S'1a8cbf0aa6f247ce4dc948c2632a2d545ea20b342e922da46853b14d2617c5ca165d181331b7eadef090a77ae2e6409dff1ce0a89'
I-418
I417
tbag7
(g8
g9
NtRp67
(I0
S'6a32fc2a9bc91f39372523098ca8b5517a882cd0ba48b691a14ec534985f17285974604cc6dfab7bc2429deb8b990277fc7382a25'
I-420
I419
tbag7
(g8
g9
NtRp68
(I0
S'6a32fc2a9bc91f39372523098ca8b5517a882cd0ba48b691a14ec534985f17285974604cc6dfab7bc2429deb8b990277fc7382a25'
I-420
I419
tbag7
(g8
g9
NtRp69
(I0
S'48c27394fffffffffffff4df2b7bd346d9f045c00247c15df7a430589f4a7126e9ea156e0512960fc2c4552dfd38eadbecf248551'
I-503
I419
tbaaa(lp70
(lp71
F-1
aF0
aa(lp72
g7
(g8
g9
NtRp73
(I0
S'105dc8aef2580fa59ae09f6b6af0b3e8d502c52cd8eb34b0d40336c8011d43c9e40a412437f9a67c32cd56ac7a3f4947b8a2d94bb'
I-416
I417
tbag7
(g8
g9
NtRp74
(I0
S'1570a057a0816d3e258a3adec33142952fd97d1492e134a496047736d7d216815b72a38f6895559aab2a72519a0fd93416f52bb0d'
I-422
I417
tbag7
(g8
g9
NtRp75
(I0
S'402018b64f5827c28929d9ffbf8fbb7a010d7ce21a7ebf7906ac93ac96f7edbf7a71da57e95d44972082b38ccf5c278ba11c1273d'
I-418
I419
tbag7
(g8
g9
NtRp76
(I0
S'1008062d93d609f0a24a767fefe3eede80435f38869fafde41ab24eb25bdfb6fde9c7695fa575125c820ace333d709e2e847049cf'
I-416
I417
tbag7
(g8
g9
NtRp77
(I0
S'55c2815e8205b4f89628eb7b0cc50a54bf65f4524b84d2925811dcdb5f485a056dca8e3da255566aaca9c946683f64d05bd4aec35'
I-424
I419
tbag7
(g8
g9
NtRp78
(I0
S'48c27394fffffffffffff4df2b7bd346d9f045c00247c15df7a430589f4a7126e9ea156e0512960fc2c4552dfd38eadbecf248551'
I-503
I419
tbaaa(lp79
(lp80
F0.80000000000000004
aF0
aa(lp81
g7
(g8
g9
NtRp82
(I0
S'5a01d03bb1f212ee5a24e9f94896242aefa7bacc2cc2f3eb45b4e048139af2593846aed772310f3cb2eefad5ca55f1e38fc5e9785'
I-419
I419
tbag7
(g8
g9
NtRp83
(I0
S'1586d3923bd5aa246c4cfca782c33733dff992acb73bd2099d2cbff6ec8de9f2ad1102925cea791293479ff0f5a607e8427595057'
I-417
I417
tbag7
(g8
g9
NtRp84
(I0
S'7cd03e58536d4b951e1eeb67b128eb6df82e0329fa75789a203c0d8c2c6951d0805491bfd0e55e4cba0f623e77ba4850bdf2ac529'
I-424
I419
tbag7
(g8
g9
NtRp85
(I0
S'7cd03e58536d4b951e1eeb67b128eb6df82e0329fa75789a203c0d8c2c6951d0805491bfd0e55e4cba0f623e77ba4850bdf2ac529'
I-424
I419
tbag7
(g8
g9
NtRp86
(I0
S'1586d3923bd5aa246c4cfca782c33733dff992acb73bd2099d2cbff6ec8de9f2ad1102925cea791293479ff0f5a607e8427595057'
I-417
I417
tbag7
(g8
g9
NtRp87
(I0
S'48c27394fffffffffffff4df2b7bd346d9f045c00247c15df7a430589f4a7126e9ea156e0512960fc2c4552dfd38eadbecf248551'
I-503
I419
tbaaa(lp88
(lp89
F-0.59999999999999998
aF0
aa(lp90
g7
(g8
g9
NtRp91
(I0
S'7eb0782dfff98192fa41f504e19969ef7b6ba809a7305386dfa292d598fbd769fa37b683aecc385f3ad6ffde27aa4155210dc827b'
I-419
I419
tbag7
(g8
g9
NtRp92
(I0
S'5a9d600bc3dd90bd9338aee8d259109085471fc6ae22449075ac2717cacf8db9c37b72a639c78cf77126d3c8b3ac3aae44219bd3d'
I-422
I419
tbag7
(g8
g9
NtRp93
(I0
S'1cd7330b21df73ded1f6b7c9f1d391f75ab0b104345b02bd343b437ca7e8796cb072120bb9e4d1b0132c8959444d2e7fd622652b5'
I-417
I417
tbag7
(g8
g9
NtRp94
(I0
S'735ccc2c877dcf7b47dadf27c74e47dd6ac2c410d16c0af4d0ed0df29fa1e5b2c1c8482ee79346c04cb225651134b9ff588994ad3'
I-419
I419
tbag7
(g8
g9
NtRp95
(I0
S'5a9d600bc3dd90bd9338aee8d259109085471fc6ae22449075ac2717cacf8db9c37b72a639c78cf77126d3c8b3ac3aae44219bd3d'
I-422
I419
tbag7
(g8
g9
NtRp96
(I0
S'48c27394fffffffffffff4df2b7bd346d9f045c00247c15df7a430589f4a7126e9ea156e0512960fc2c4552dfd38eadbecf248551'
I-503
I419
tbaaa(lp97
(lp98
F0.20000000000000018
aF0
aa(lp99
g7
(g8
g9
NtRp100
(I0
S'18c0b435492d2d3ae59f66390cd6d47201f72aff70b8571ac62d74d7a6537184eb41ea0074cecc3d3b7bd8a4090fe160476a5d17d'
I-417
I417
tbag7
(g8
g9
NtRp101
(I0
S'43c0fe574034d403b675f548cad83b35c18017a2c78d9962e21da33301fcab214514faf7e4119f3ae970fb3ac35c071eeebaba59d'
I-419
I419
tbag7
(g8
g9
NtRp102
(I0
S'7d0749f791ff839f801e8e6da20c5a491972516bed4f0c20da60c0ae5d446bc99fcab427bca646e811f99d55838df988bbbae815b'
I-421
I419
tbag7
(g8
g9
NtRp103
(I0
S'7d0749f791ff839f801e8e6da20c5a491972516bed4f0c20da60c0ae5d446bc99fcab427bca646e811f99d55838df988bbbae815b'
I-421
I419
tbag7
(g8
g9
NtRp104
(I0
S'43c0fe574034d403b675f548cad83b35c18017a2c78d9962e21da33301fcab214514faf7e4119f3ae970fb3ac35c071eeebaba59d'
I-419
I419
tbag7
(g8
g9
NtRp105
(I0
S'48c27394fffffffffffff4df2b7bd346d9f045c00247c15df7a430589f4a7126e9ea156e0512960fc2c4552dfd38eadbecf248551'
I-503
I419
tbaaas.